(dp0
S'total_max_upload_rate'
p1
I100
sS'allow_intranet_access'
p2
I01
sS'download_dir'
p3
V/system/data/data/org.acestream.engine/files/.ACEStream/.acestream_cache
p4
sS'total_max_download_rate'
p5
I0
sS'disk_cache_limit'
p6
L1073741824L
sS'live_buffer_time'
p7
I10
sS'allow_remote_access'
p8
I01
sS'ad_storage_limit'
p9
L536870912L
sS'player_buffer_time'
p10
I10
sS'max_peers'
p11
I100
sS'max_connects'
p12
I150
sS'preferred_audio_language'
p13
S'eng'
sS'playlist_output_format_vod'
p14
S'http'
sS'playlist_output_format_live'
p15
S'http'
s.
