(dp0
S'allow_intranet_access'
p1
I01
sS'live_buffer_time'
p2
I30
sS'download_dir'
p3
V/system/data/data/org.acestream.engine/files/.ACEStream/.acestream_cache
sS'total_max_download_rate'
p4
I0
sS'disk_cache_limit'
p5
L1073741824L
sS'ad_storage_limit'
p6
L536870912L
sS'max_peers'
p7
I100
sS'allow_remote_access'
p8
I01
sS'player_buffer_time'
p9
I30
sS'total_max_upload_rate'
p10
I0
s.
