(dp0
S'total_max_upload_rate'
p1
I0
sS'download_dir'
p2
V/system/data/data/org.acestream.engine/files/.ACEStream/.acestream_cache
p3
sS'total_max_download_rate'
p4
I0
sS'disk_cache_limit'
p5
L1073741824L
sS'ad_storage_limit'
p6
L536870912L
sS'max_peers'
p7
I50
s.